target datalayout = "e-m:e-p270:32:32-p271:32:32-p272:64:64-i64:64-i128:128-f80:128-n8:16:32:64-S128"
target triple = "x86_64-pc-linux-gnu"

%class.G1CMIsAliveClosure = type { %class.BoolObjectClosure, ptr }
%class.BoolObjectClosure = type { ptr }
%class.BitMap = type { ptr, i64 }
%class.G1MappingChangedListener = type { ptr }
%class.MemRegion = type { ptr, i64 }
%class.G1CMSubjectToDiscoveryClosure = type { %class.BoolObjectClosure, ptr }
%class.G1STWIsAliveClosure = type { %class.BoolObjectClosure, ptr }
%class.TimeInstant = type { %class.CompositeCounterRepresentation }
%class.CompositeCounterRepresentation = type { %class.Representation }
%class.Representation = type { %class.PairRep }
%class.PairRep = type { i64, i64 }
%class.G1FullGCCompactTask = type { %class.G1FullGCTask, ptr, %class.G1HeapRegionClaimer, ptr }
%class.G1FullGCTask = type { %class.WorkerTask.base, ptr }
%class.WorkerTask.base = type <{ ptr, ptr, i32 }>
%class.G1HeapRegionClaimer = type { i32, i32, ptr }
%class.GrowableArrayView.4 = type { %class.GrowableArrayBase, ptr }
%class.GrowableArrayBase = type { i32, i32 }
%class.G1BiasedMappedArrayBase.base = type <{ ptr, ptr, ptr, i64, ptr, i64, i32 }>
%class.G1CollectedHeap = type { %class.CollectedHeap, ptr, ptr, ptr, ptr, ptr, %class.TimeInstant, %class.G1HeapRegionSet, %class.G1HeapRegionSet, %class.G1MonotonicArenaMemoryStats, %class.G1MonotonicArenaMemoryStats, ptr, %class.G1RegionMappingChangedListener, ptr, %class.G1HeapRegionManager, ptr, %class.G1YoungGCAllocationFailureInjector, ptr, i64, i64, %class.G1EvacStats, %class.G1EvacStats, ptr, i32, i32, %class.G1CollectorState, i32, i32, %class.G1EdenRegions, %class.G1SurvivorRegions, ptr, ptr, ptr, ptr, %class.G1CollectionSet, ptr, %class.G1CardSetConfiguration, %class.G1MonotonicArenaFreePool, ptr, ptr, ptr, ptr, ptr, %class.G1STWIsAliveClosure, %class.G1STWSubjectToDiscoveryClosure, ptr, %class.G1CMIsAliveClosure, %class.G1CMSubjectToDiscoveryClosure, %class.G1HeapRegionAttrBiasedMappedArray }
%class.CollectedHeap = type { ptr, ptr, i64, i64, %class.SoftRefPolicy, %class.MemRegion, i8, i64, i32, i32, i32, i32, ptr, ptr }
%class.SoftRefPolicy = type { i8, i8 }
%class.G1HeapRegionSet = type { %class.G1HeapRegionSetBase.base, [7 x i8] }
%class.G1HeapRegionSetBase.base = type <{ ptr, ptr, i32, [4 x i8], ptr, i8 }>
%class.G1MonotonicArenaMemoryStats = type { [4 x i64], [4 x i64] }
%class.G1RegionMappingChangedListener = type { %class.G1MappingChangedListener }
%class.G1HeapRegionManager = type { ptr, ptr, %class.G1CommittedRegionMap, i32, [4 x i8], %class.G1HeapRegionTable, ptr, ptr, %class.G1FreeRegionList }
%class.G1CommittedRegionMap = type { ptr, %class.CHeapBitMap, %class.CHeapBitMap, i32, i32 }
%class.CHeapBitMap = type <{ %class.GrowableBitMap, i8, [7 x i8] }>
%class.GrowableBitMap = type { %class.BitMap }
%class.G1HeapRegionTable = type { %class.G1BiasedMappedArray.base, [4 x i8] }
%class.G1BiasedMappedArray.base = type { %class.G1BiasedMappedArrayBase.base }
%class.G1FreeRegionList = type { %class.G1HeapRegionSetBase.base, ptr, ptr, ptr, ptr }
%class.G1YoungGCAllocationFailureInjector = type { i8 }
%class.G1EvacStats = type { %class.PLABStats, i64, i64, %class.AdaptiveWeightedAverage, i64, i32, i64, i64, i64, i64, i64 }
%class.PLABStats = type { ptr, ptr, i64, i64, i64, i64 }
%class.AdaptiveWeightedAverage = type { float, i32, i32, i8, float }
%class.G1CollectorState = type { i8, i8, i8, i8, i8, i8, i8 }
%class.G1EdenRegions = type { i32, i64, %class.G1RegionsOnNodes }
%class.G1RegionsOnNodes = type { ptr, ptr }
%class.G1SurvivorRegions = type { ptr, i64, %class.G1RegionsOnNodes }
%class.G1CollectionSet = type { ptr, ptr, %class.G1CollectionSetCandidates, ptr, i32, i32, i32, i32, i32, %class.G1CollectionCandidateRegionList, i32, i64 }
%class.G1CollectionSetCandidates = type { [8 x i8], %class.G1CollectionCandidateList, %class.G1CollectionCandidateList, ptr, i32, i32 }
%class.G1CollectionCandidateList = type { %class.GrowableArray }
%class.GrowableArray = type { %class.GrowableArrayWithAllocator, %class.GrowableArrayMetadata }
%class.GrowableArrayWithAllocator = type { %class.GrowableArrayView }
%class.GrowableArrayView = type { %class.GrowableArrayBase, ptr }
%class.GrowableArrayMetadata = type { i64 }
%class.G1CollectionCandidateRegionList = type { %class.GrowableArray.2 }
%class.GrowableArray.2 = type { %class.GrowableArrayWithAllocator.3, %class.GrowableArrayMetadata }
%class.GrowableArrayWithAllocator.3 = type { %class.GrowableArrayView.4 }
%class.G1CardSetConfiguration = type { i32, i32, i32, i32, i32, i32, i32, i32, i32, i32, i32, ptr }
%class.G1MonotonicArenaFreePool = type { i32, ptr }
%class.G1STWSubjectToDiscoveryClosure = type { %class.BoolObjectClosure, ptr }
%class.G1HeapRegionAttrBiasedMappedArray = type { %class.G1BiasedMappedArray.base.6, [4 x i8] }
%class.G1BiasedMappedArray.base.6 = type { %class.G1BiasedMappedArrayBase.base }
%class.G1BiasedMappedArrayBase = type <{ ptr, ptr, ptr, i64, ptr, i64, i32, [4 x i8] }>

; Function Attrs: mustprogress nounwind uwtable
define linkonce_odr hidden noundef ptr @_ZNK19G1BiasedMappedArrayIP12G1HeapRegionE4baseEv(ptr noundef nonnull align 8 dereferenceable(52) %0) #1 comdat align 2 {
  %2 = alloca ptr, align 8
  store ptr %0, ptr %2, align 8
  %3 = load ptr, ptr %2, align 8
  %4 = getelementptr inbounds %class.G1BiasedMappedArrayBase, ptr %3, i32 0, i32 2
  %5 = load ptr, ptr %4, align 8
  ret ptr %5
}

; Function Attrs: mustprogress nounwind uwtable
define linkonce_odr hidden void @_ZNK23G1BiasedMappedArrayBase12verify_indexEm(ptr noundef nonnull align 8 dereferenceable(52) %0, i64 noundef %1) #1 comdat align 2 {
  %3 = alloca ptr, align 8
  %4 = alloca i64, align 8
  store ptr %0, ptr %3, align 8
  store i64 %1, ptr %4, align 8
  ret void
}

; Function Attrs: mustprogress nounwind uwtable
define linkonce_odr hidden noundef ptr @_ZNK19G1BiasedMappedArrayIP12G1HeapRegionE12get_by_indexEm(ptr noundef nonnull align 8 dereferenceable(52) %0, i64 noundef %1) #1 comdat align 2 {
  %3 = alloca ptr, align 8
  %4 = alloca i64, align 8
  store ptr %0, ptr %3, align 8
  store i64 %1, ptr %4, align 8
  %5 = load ptr, ptr %3, align 8
  %6 = load i64, ptr %4, align 8
  call void @_ZNK23G1BiasedMappedArrayBase12verify_indexEm(ptr noundef nonnull align 8 dereferenceable(52) %5, i64 noundef %6)
  %7 = call noundef ptr @_ZNK19G1BiasedMappedArrayIP12G1HeapRegionE4baseEv(ptr noundef nonnull align 8 dereferenceable(52) %5)
  %8 = load i64, ptr %4, align 8
  %9 = getelementptr inbounds ptr, ptr %7, i64 %8
  %10 = load ptr, ptr %9, align 8
  ret ptr %10
}

; Function Attrs: mustprogress nounwind uwtable
define linkonce_odr hidden noundef ptr @_ZNK19G1HeapRegionManager2atEj(ptr noundef nonnull align 8 dereferenceable(232) %0, i32 noundef %1) #1 comdat align 2 {
  %3 = alloca ptr, align 8
  %4 = alloca i32, align 4
  %5 = alloca ptr, align 8
  store ptr %0, ptr %3, align 8
  store i32 %1, ptr %4, align 4
  %6 = load ptr, ptr %3, align 8
  %7 = getelementptr inbounds %class.G1HeapRegionManager, ptr %6, i32 0, i32 5
  %8 = load i32, ptr %4, align 4
  %9 = zext i32 %8 to i64
  %10 = call noundef ptr @_ZNK19G1BiasedMappedArrayIP12G1HeapRegionE12get_by_indexEm(ptr noundef nonnull align 8 dereferenceable(52) %7, i64 noundef %9)
  store ptr %10, ptr %5, align 8
  %11 = load ptr, ptr %5, align 8
  ret ptr %11
}

; Function Attrs: mustprogress nounwind uwtable
define linkonce_odr hidden noundef ptr @_ZNK15G1CollectedHeap9region_atEj(ptr noundef nonnull align 8 dereferenceable(1488) %0, i32 noundef %1) #1 comdat align 2 {
  %3 = alloca ptr, align 8
  %4 = alloca i32, align 4
  store ptr %0, ptr %3, align 8
  store i32 %1, ptr %4, align 4
  %5 = load ptr, ptr %3, align 8
  %6 = getelementptr inbounds %class.G1CollectedHeap, ptr %5, i32 0, i32 14
  %7 = load i32, ptr %4, align 4
  %8 = call noundef ptr @_ZNK19G1HeapRegionManager2atEj(ptr noundef nonnull align 8 dereferenceable(232) %6, i32 noundef %7)
  ret ptr %8
}

; Function Attrs: mustprogress nounwind uwtable
define hidden void @_ZN19G1FullGCCompactTask28free_non_overlapping_regionsEjjj(ptr noundef nonnull align 8 dereferenceable(64) %0, i32 noundef %1, i32 noundef %2, i32 noundef %3) #1 align 2 {
  %5 = alloca ptr, align 8
  %6 = alloca i32, align 4
  %7 = alloca i32, align 4
  %8 = alloca i32, align 4
  %9 = alloca i32, align 4
  %10 = alloca i32, align 4
  %11 = alloca i32, align 4
  %12 = alloca i32, align 4
  %13 = alloca ptr, align 8
  store ptr %0, ptr %5, align 8
  store i32 %1, ptr %6, align 4
  store i32 %2, ptr %7, align 4
  store i32 %3, ptr %8, align 4
  %14 = load ptr, ptr %5, align 8
  %15 = load i32, ptr %7, align 4
  %16 = load i32, ptr %8, align 4
  %17 = add i32 %15, %16
  %18 = sub i32 %17, 1
  store i32 %18, ptr %9, align 4
  %19 = load i32, ptr %6, align 4
  %20 = load i32, ptr %8, align 4
  %21 = add i32 %19, %20
  %22 = sub i32 %21, 1
  store i32 %22, ptr %10, align 4
  %23 = load i32, ptr %9, align 4
  %24 = load i32, ptr %6, align 4
  %25 = icmp ult i32 %23, %24
  br i1 %25, label %26, label %28

26:                                               ; preds = %4
  %27 = load i32, ptr %6, align 4
  br label %31

28:                                               ; preds = %4
  %29 = load i32, ptr %9, align 4
  %30 = add i32 %29, 1
  br label %31

31:                                               ; preds = %28, %26
  %32 = phi i32 [ %27, %26 ], [ %30, %28 ]
  store i32 %32, ptr %11, align 4
  %33 = load i32, ptr %11, align 4
  store i32 %33, ptr %12, align 4
  br label %34

34:                                               ; preds = %46, %31
  %35 = load i32, ptr %12, align 4
  %36 = load i32, ptr %10, align 4
  %37 = icmp ule i32 %35, %36
  br i1 %37, label %38, label %49

38:                                               ; preds = %34
  %39 = getelementptr inbounds %class.G1FullGCCompactTask, ptr %14, i32 0, i32 3
  %40 = load ptr, ptr %39, align 8
  %41 = load i32, ptr %12, align 4
  %42 = call noundef ptr @_ZNK15G1CollectedHeap9region_atEj(ptr noundef nonnull align 8 dereferenceable(1488) %40, i32 noundef %41)
  store ptr %42, ptr %13, align 8
  %43 = getelementptr inbounds %class.G1FullGCCompactTask, ptr %14, i32 0, i32 3
  %44 = load ptr, ptr %43, align 8
  %45 = load ptr, ptr %13, align 8
  call void @_ZN15G1CollectedHeap21free_humongous_regionEP12G1HeapRegionP16G1FreeRegionList(ptr noundef nonnull align 8 dereferenceable(1488) %44, ptr noundef %45, ptr noundef null)
  br label %46

46:                                               ; preds = %38
  %47 = load i32, ptr %12, align 4
  %48 = add i32 %47, 1
  store i32 %48, ptr %12, align 4
  br label %34, !llvm.loop !10

49:                                               ; preds = %34
  ret void
}