; Function Attrs: mustprogress nounwind uwtable
define hidden void @_ZN19G1FullGCCompactTask28free_non_overlapping_regionsEjjj(ptr nocapture noundef nonnull readonly align 8 dereferenceable(64) %0, i32 noundef %1, i32 noundef %2, i32 noundef %3) local_unnamed_addr #0 align 2 {
  %5 = add i32 %3, %2
  %6 = add i32 %5, -1
  %7 = add i32 %1, -1
  %8 = add i32 %7, %3
  %9 = icmp ult i32 %6, %1
  %10 = select i1 %9, i32 %1, i32 %5
  %.not14 = icmp ugt i32 %10, %8
  br i1 %.not14, label %._crit_edge, label %.lr.ph

.lr.ph:                                           ; preds = %4
  %11 = getelementptr inbounds i8, ptr %0, i64 56
  br label %12

12:                                               ; preds = %.lr.ph, %12
  %.015 = phi i32 [ %10, %.lr.ph ], [ %19, %12 ]
  %13 = load ptr, ptr %11, align 8
  %14 = zext i32 %.015 to i64
  %15 = getelementptr inbounds i8, ptr %13, i64 496
  %16 = load ptr, ptr %15, align 8
  %17 = getelementptr inbounds ptr, ptr %16, i64 %14
  %18 = load ptr, ptr %17, align 8
  tail call void @_ZN15G1CollectedHeap21free_humongous_regionEP12G1HeapRegionP16G1FreeRegionList(ptr noundef nonnull align 8 dereferenceable(1488) %13, ptr noundef %18, ptr noundef null) #9
  %19 = add i32 %.015, 1
  %.not = icmp ugt i32 %19, %8
  br i1 %.not, label %._crit_edge, label %12, !llvm.loop !13

._crit_edge:                                      ; preds = %12, %4
  ret void
}